; Function Attrs: mustprogress uwtable
define void @_Z9pr_symtabP8_IO_FILEiPKcP8t_symtab(ptr noundef %0, i32 noundef %1, ptr noundef %2, ptr noundef %3) local_unnamed_addr #0 personality ptr @__gxx_personality_v0 {
  %5 = alloca %"class.std::__cxx11::basic_string", align 8
  %6 = alloca %"class.std::allocator.2", align 1
  %7 = alloca %"class.std::filesystem::__cxx11::path", align 8
  %8 = tail call noundef zeroext i1 @_Z9availableP8_IO_FILEPKviPKc(ptr noundef %0, ptr noundef %3, i32 noundef %1, ptr noundef %2)
  br i1 %8, label %9, label %51

9:                                                ; preds = %4
  %10 = load i32, ptr %3, align 8, !tbaa !108
  %11 = tail call noundef i32 @_Z10pr_title_nP8_IO_FILEiPKci(ptr noundef %0, i32 noundef %1, ptr noundef %2, i32 noundef %10)
  %12 = load i32, ptr %3, align 8, !tbaa !108
  %13 = getelementptr inbounds nuw i8, ptr %3, i64 8
  %.03141 = load ptr, ptr %13, align 8, !tbaa !110
  %.not42 = icmp eq ptr %.03141, null
  br i1 %.not42, label %._crit_edge46, label %.preheader

.preheader:                                       ; preds = %9, %._crit_edge
  %.03145 = phi ptr [ %.031, %._crit_edge ], [ %.03141, %9 ]
  %.03244 = phi i32 [ %33, %._crit_edge ], [ %12, %9 ]
  %.03343 = phi i32 [ %.134.lcssa, %._crit_edge ], [ 0, %9 ]
  %14 = load i32, ptr %.03145, align 8, !tbaa !101
  %15 = icmp sgt i32 %14, 0
  %16 = icmp sgt i32 %.03244, 0
  %17 = select i1 %15, i1 %16, i1 false
  br i1 %17, label %.lr.ph, label %._crit_edge

.lr.ph:                                           ; preds = %.preheader
  %18 = getelementptr inbounds nuw i8, ptr %.03145, i64 8
  %19 = zext nneg i32 %.03244 to i64
  br label %20

20:                                               ; preds = %.lr.ph, %20
  %indvars.iv = phi i64 [ 0, %.lr.ph ], [ %indvars.iv.next, %20 ]
  %.13438 = phi i32 [ %.03343, %.lr.ph ], [ %22, %20 ]
  %21 = tail call noundef i32 @_Z9pr_indentP8_IO_FILEi(ptr noundef %0, i32 noundef %11)
  %22 = add nsw i32 %.13438, 1
  %23 = load ptr, ptr %18, align 8, !tbaa !106
  %24 = getelementptr inbounds nuw ptr, ptr %23, i64 %indvars.iv
  %25 = load ptr, ptr %24, align 8, !tbaa !51
  %26 = tail call i32 (ptr, ptr, ...) @fprintf(ptr noundef %0, ptr noundef nonnull @.str.3, ptr noundef %2, i32 noundef %.13438, ptr noundef %25) #25
  %indvars.iv.next = add nuw nsw i64 %indvars.iv, 1
  %27 = load i32, ptr %.03145, align 8, !tbaa !101
  %28 = sext i32 %27 to i64
  %29 = icmp slt i64 %indvars.iv.next, %28
  %30 = icmp samesign ult i64 %indvars.iv.next, %19
  %31 = select i1 %29, i1 %30, i1 false
  br i1 %31, label %20, label %._crit_edge.loopexit, !llvm.loop !120

._crit_edge.loopexit:                             ; preds = %20
  %32 = trunc nuw nsw i64 %indvars.iv.next to i32
  br label %._crit_edge

._crit_edge:                                      ; preds = %._crit_edge.loopexit, %.preheader
  %.134.lcssa = phi i32 [ %.03343, %.preheader ], [ %22, %._crit_edge.loopexit ]
  %.030.lcssa = phi i32 [ 0, %.preheader ], [ %32, %._crit_edge.loopexit ]
  %33 = sub nsw i32 %.03244, %.030.lcssa
  %34 = getelementptr inbounds nuw i8, ptr %.03145, i64 16
  %.031 = load ptr, ptr %34, align 8, !tbaa !110
  %.not = icmp eq ptr %.031, null
  br i1 %.not, label %._crit_edge46, label %.preheader, !llvm.loop !121

._crit_edge46:                                    ; preds = %._crit_edge, %9
  %.032.lcssa = phi i32 [ %12, %9 ], [ %33, %._crit_edge ]
  %.not35 = icmp eq i32 %.032.lcssa, 0
  br i1 %.not35, label %51, label %35

35:                                               ; preds = %._crit_edge46
  call void @llvm.lifetime.start.p0(i64 32, ptr nonnull %5) #25
  call void @llvm.lifetime.start.p0(i64 1, ptr nonnull %6) #25
  call void @_ZNSt7__cxx1112basic_stringIcSt11char_traitsIcESaIcEEC2IS3_EEPKcRKS3_(ptr noundef nonnull align 8 dereferenceable(32) %5, ptr noundef nonnull @.str.26, ptr noundef nonnull align 1 dereferenceable(1) %6)
  call void @llvm.lifetime.start.p0(i64 40, ptr nonnull %7) #25
  invoke void @_ZNSt10filesystem7__cxx114pathC2IA125_cS1_EERKT_NS1_6formatE(ptr noundef nonnull align 8 dereferenceable(40) %7, ptr noundef nonnull align 1 dereferenceable(125) @.str.1, i8 noundef zeroext 2)
          to label %36 unwind label %38

36:                                               ; preds = %35
  invoke void @_Z18gmx_error_functionPKcRKNSt7__cxx1112basic_stringIcSt11char_traitsIcESaIcEEERKNSt10filesystem7__cxx114pathEi(ptr noundef nonnull @.str.24, ptr noundef nonnull align 8 dereferenceable(32) %5, ptr noundef nonnull align 8 dereferenceable(40) %7, i32 noundef 432) #29
          to label %37 unwind label %40

37:                                               ; preds = %36
  unreachable

38:                                               ; preds = %35
  %39 = landingpad { ptr, i32 }
          cleanup
  br label %42

40:                                               ; preds = %36
  %41 = landingpad { ptr, i32 }
          cleanup
  call void @_ZNSt10filesystem7__cxx114pathD2Ev(ptr noundef nonnull align 8 dereferenceable(40) %7) #25
  br label %42

42:                                               ; preds = %40, %38
  %.pn = phi { ptr, i32 } [ %41, %40 ], [ %39, %38 ]
  call void @llvm.lifetime.end.p0(i64 40, ptr nonnull %7) #25
  %43 = load ptr, ptr %5, align 8, !tbaa !19
  %44 = getelementptr inbounds nuw i8, ptr %5, i64 16
  %45 = icmp eq ptr %43, %44
  br i1 %45, label %_ZNKSt7__cxx1112basic_stringIcSt11char_traitsIcESaIcEE11_M_is_localEv.exit.thread.i.i, label %_ZNKSt7__cxx1112basic_stringIcSt11char_traitsIcESaIcEE11_M_is_localEv.exit.i.i

_ZNKSt7__cxx1112basic_stringIcSt11char_traitsIcESaIcEE11_M_is_localEv.exit.thread.i.i: ; preds = %42
  %46 = getelementptr inbounds nuw i8, ptr %5, i64 8
  %47 = load i64, ptr %46, align 8, !tbaa !21
  %48 = icmp ult i64 %47, 16
  call void @llvm.assume(i1 %48)
  br label %_ZNSt7__cxx1112basic_stringIcSt11char_traitsIcESaIcEED2Ev.exit

_ZNKSt7__cxx1112basic_stringIcSt11char_traitsIcESaIcEE11_M_is_localEv.exit.i.i: ; preds = %42
  %49 = load i64, ptr %44, align 8, !tbaa !23
  %50 = add i64 %49, 1
  call void @_ZdlPvm(ptr noundef %43, i64 noundef %50) #26
  br label %_ZNSt7__cxx1112basic_stringIcSt11char_traitsIcESaIcEED2Ev.exit

_ZNSt7__cxx1112basic_stringIcSt11char_traitsIcESaIcEED2Ev.exit: ; preds = %_ZNKSt7__cxx1112basic_stringIcSt11char_traitsIcESaIcEE11_M_is_localEv.exit.i.i, %_ZNKSt7__cxx1112basic_stringIcSt11char_traitsIcESaIcEE11_M_is_localEv.exit.thread.i.i
  call void @llvm.lifetime.end.p0(i64 1, ptr nonnull %6) #25
  call void @llvm.lifetime.end.p0(i64 32, ptr nonnull %5) #25
  resume { ptr, i32 } %.pn

51:                                               ; preds = %._crit_edge46, %4
  ret void
}